; Function Attrs: mustprogress uwtable
define internal fastcc void @_ZN12_GLOBAL__N_120escapeDependencyPathB5cxx11ESt17basic_string_viewIcSt11char_traitsIcEE(ptr dead_on_unwind noalias nonnull writable align 8 %0, i64 %1, ptr nocapture readonly %2) unnamed_addr #3 personality ptr @__gxx_personality_v0 {
  tail call void @_ZNSt7__cxx1112basic_stringIcSt11char_traitsIcESaIcEEC1Ev(ptr noundef nonnull align 8 dereferenceable(32) %0) #23
  invoke void @_ZNSt7__cxx1112basic_stringIcSt11char_traitsIcESaIcEE7reserveEm(ptr noundef nonnull align 8 dereferenceable(32) %0, i64 noundef %1)
          to label %.preheader19 unwind label %.loopexit.split-lp.loopexit.split-lp

.preheader19:                                     ; preds = %3
  %.not = icmp eq i64 %1, 0
  br i1 %.not, label %._crit_edge, label %.lr.ph

.lr.ph:                                           ; preds = %.preheader19, %14
  %.024 = phi i64 [ %15, %14 ], [ 0, %.preheader19 ]
  %.01223 = phi i32 [ %.2, %14 ], [ 0, %.preheader19 ]
  %4 = getelementptr inbounds i8, ptr %2, i64 %.024
  %5 = load i8, ptr %4, align 1
  switch i8 %5, label %.loopexit [
    i8 92, label %6
    i8 36, label %.invoke
    i8 35, label %8
    i8 32, label %.preheader
  ]

6:                                                ; preds = %.lr.ph
  %7 = add nsw i32 %.01223, 1
  br label %.loopexit

.loopexit18:                                      ; preds = %11
  %lpad.loopexit = landingpad { ptr, i32 }
          cleanup
  br label %.loopexit.split-lp

.loopexit.split-lp.loopexit:                      ; preds = %.invoke, %.loopexit
  %lpad.loopexit20 = landingpad { ptr, i32 }
          cleanup
  br label %.loopexit.split-lp

.loopexit.split-lp.loopexit.split-lp:             ; preds = %3
  %lpad.loopexit.split-lp21 = landingpad { ptr, i32 }
          cleanup
  br label %.loopexit.split-lp

.loopexit.split-lp:                               ; preds = %.loopexit.split-lp.loopexit, %.loopexit.split-lp.loopexit.split-lp, %.loopexit18
  %lpad.phi = phi { ptr, i32 } [ %lpad.loopexit, %.loopexit18 ], [ %lpad.loopexit20, %.loopexit.split-lp.loopexit ], [ %lpad.loopexit.split-lp21, %.loopexit.split-lp.loopexit.split-lp ]
  tail call void @_ZNSt7__cxx1112basic_stringIcSt11char_traitsIcESaIcEED1Ev(ptr noundef nonnull align 8 dereferenceable(32) %0) #23
  resume { ptr, i32 } %lpad.phi

8:                                                ; preds = %.lr.ph
  br label %.invoke

.invoke:                                          ; preds = %.lr.ph, %8
  %9 = phi i8 [ 92, %8 ], [ %5, %.lr.ph ]
  invoke void @_ZNSt7__cxx1112basic_stringIcSt11char_traitsIcESaIcEE9push_backEc(ptr noundef nonnull align 8 dereferenceable(32) %0, i8 noundef signext %9)
          to label %.loopexit unwind label %.loopexit.split-lp.loopexit

.preheader:                                       ; preds = %.lr.ph, %11
  %.1 = phi i32 [ %12, %11 ], [ %.01223, %.lr.ph ]
  %10 = icmp sgt i32 %.1, -1
  br i1 %10, label %11, label %.loopexit

11:                                               ; preds = %.preheader
  %12 = add nsw i32 %.1, -1
  invoke void @_ZNSt7__cxx1112basic_stringIcSt11char_traitsIcESaIcEE9push_backEc(ptr noundef nonnull align 8 dereferenceable(32) %0, i8 noundef signext 92)
          to label %.preheader unwind label %.loopexit18, !llvm.loop !1526

.loopexit:                                        ; preds = %.preheader, %.invoke, %.lr.ph, %6
  %.2 = phi i32 [ %7, %6 ], [ 0, %.lr.ph ], [ 0, %.invoke ], [ 0, %.preheader ]
  %13 = load i8, ptr %4, align 1
  invoke void @_ZNSt7__cxx1112basic_stringIcSt11char_traitsIcESaIcEE9push_backEc(ptr noundef nonnull align 8 dereferenceable(32) %0, i8 noundef signext %13)
          to label %14 unwind label %.loopexit.split-lp.loopexit

14:                                               ; preds = %.loopexit
  %15 = add nuw i64 %.024, 1
  %exitcond.not = icmp eq i64 %15, %1
  br i1 %exitcond.not, label %._crit_edge, label %.lr.ph, !llvm.loop !1527

._crit_edge:                                      ; preds = %14, %.preheader19
  ret void
}